; Function Attrs: mustprogress nofree norecurse nosync nounwind memory(read, argmem: readwrite, inaccessiblemem: none) uwtable
define void @_ZN6colvar29update_active_cvc_square_normEv(ptr nocapture noundef nonnull align 8 dereferenceable(4624) %0) local_unnamed_addr #17 align 2 {
  %2 = getelementptr inbounds i8, ptr %0, i64 3592
  store double 0.000000e+00, ptr %2, align 8
  %3 = getelementptr inbounds i8, ptr %0, i64 4432
  %4 = getelementptr inbounds i8, ptr %0, i64 4440
  %5 = load ptr, ptr %4, align 8
  %6 = load ptr, ptr %3, align 8
  %.not = icmp eq ptr %5, %6
  br i1 %.not, label %._crit_edge, label %.lr.ph.preheader

.lr.ph.preheader:                                 ; preds = %1
  %7 = ptrtoint ptr %5 to i64
  %8 = ptrtoint ptr %6 to i64
  %9 = sub i64 %7, %8
  %10 = ashr exact i64 %9, 3
  %umax = tail call i64 @llvm.umax.i64(i64 %10, i64 1)
  br label %.lr.ph

.lr.ph:                                           ; preds = %.lr.ph.preheader, %23
  %.05 = phi i64 [ %25, %23 ], [ 0, %.lr.ph.preheader ]
  %11 = phi double [ %24, %23 ], [ 0.000000e+00, %.lr.ph.preheader ]
  %12 = getelementptr inbounds ptr, ptr %6, i64 %.05
  %13 = load ptr, ptr %12, align 8
  %14 = getelementptr inbounds i8, ptr %13, i64 368
  %15 = load ptr, ptr %14, align 8
  %16 = getelementptr inbounds i8, ptr %15, i64 1
  %17 = load i8, ptr %16, align 1
  %18 = trunc i8 %17 to i1
  br i1 %18, label %19, label %23

19:                                               ; preds = %.lr.ph
  %20 = getelementptr inbounds i8, ptr %13, i64 536
  %21 = load double, ptr %20, align 8
  %22 = tail call double @llvm.fmuladd.f64(double %21, double %21, double %11)
  store double %22, ptr %2, align 8
  br label %23

23:                                               ; preds = %.lr.ph, %19
  %24 = phi double [ %11, %.lr.ph ], [ %22, %19 ]
  %25 = add nuw i64 %.05, 1
  %exitcond.not = icmp eq i64 %25, %umax
  br i1 %exitcond.not, label %._crit_edge, label %.lr.ph, !llvm.loop !132

._crit_edge:                                      ; preds = %23, %1
  ret void
}